target datalayout = "e-m:e-p270:32:32-p271:32:32-p272:64:64-i64:64-i128:128-f80:128-n8:16:32:64-S128"
target triple = "x86_64-pc-linux-gnu"

%struct.ItemPointerData = type { %struct.BlockIdData, i16 }
%struct.BlockIdData = type { i16, i16 }
%struct.spgConfigOut = type { i32, i32, i32, i8, i8 }
%struct.SpGistTypeDesc = type { i32, i16, i8, i8, i8 }
%struct.SpGistState = type { ptr, %struct.spgConfigOut, %struct.SpGistTypeDesc, %struct.SpGistTypeDesc, %struct.SpGistTypeDesc, %struct.SpGistTypeDesc, ptr, ptr, i32, i8 }
%struct.IndexTupleData = type { %struct.ItemPointerData, i16 }

@.str.1 = private unnamed_addr constant [11 x i8] c"spgutils.c\00", align 1
@.str.9 = private unnamed_addr constant [60 x i8] c"some but not all node labels are null in SPGiST inner tuple\00", align 1
@__func__.spgExtractNodeLabels = private unnamed_addr constant [21 x i8] c"spgExtractNodeLabels\00", align 1

; Function Attrs: inlinehint nounwind uwtable
define internal i64 @PointerGetDatum(ptr noundef %0) #2 {
  %2 = alloca ptr, align 8
  store ptr %0, ptr %2, align 8
  %3 = load ptr, ptr %2, align 8
  %4 = ptrtoint ptr %3 to i64
  ret i64 %4
}

; Function Attrs: inlinehint nounwind uwtable
define internal i64 @IndexTupleSize(ptr noundef %0) #2 {
  %2 = alloca ptr, align 8
  store ptr %0, ptr %2, align 8
  %3 = load ptr, ptr %2, align 8
  %4 = getelementptr inbounds nuw %struct.IndexTupleData, ptr %3, i32 0, i32 1
  %5 = load i16, ptr %4, align 2
  %6 = zext i16 %5 to i32
  %7 = and i32 %6, 8191
  %8 = sext i32 %7 to i64
  ret i64 %8
}

; Function Attrs: inlinehint nounwind uwtable
define internal zeroext i1 @IndexTupleHasNulls(ptr noundef %0) #2 {
  %2 = alloca ptr, align 8
  store ptr %0, ptr %2, align 8
  %3 = load ptr, ptr %2, align 8
  %4 = getelementptr inbounds nuw %struct.IndexTupleData, ptr %3, i32 0, i32 1
  %5 = load i16, ptr %4, align 2
  %6 = zext i16 %5 to i32
  %7 = and i32 %6, 32768
  %8 = icmp ne i32 %7, 0
  ret i1 %8
}

; Function Attrs: nounwind uwtable
define dso_local ptr @spgExtractNodeLabels(ptr noundef %0, ptr noundef %1) #0 {
  %3 = alloca ptr, align 8
  %4 = alloca ptr, align 8
  %5 = alloca ptr, align 8
  %6 = alloca ptr, align 8
  %7 = alloca i32, align 4
  %8 = alloca ptr, align 8
  %9 = alloca i32, align 4
  store ptr %0, ptr %4, align 8
  store ptr %1, ptr %5, align 8
  call void @llvm.lifetime.start.p0(i64 8, ptr %6) #7
  call void @llvm.lifetime.start.p0(i64 4, ptr %7) #7
  call void @llvm.lifetime.start.p0(i64 8, ptr %8) #7
  %10 = load ptr, ptr %5, align 8
  %11 = getelementptr inbounds nuw i8, ptr %10, i64 8
  %12 = load ptr, ptr %5, align 8
  %13 = load i32, ptr %12, align 4
  %14 = lshr i32 %13, 16
  %15 = sext i32 %14 to i64
  %16 = getelementptr inbounds i8, ptr %11, i64 %15
  store ptr %16, ptr %8, align 8
  %17 = load ptr, ptr %8, align 8
  %18 = call zeroext i1 @IndexTupleHasNulls(ptr noundef %17)
  br i1 %18, label %19, label %57

19:                                               ; preds = %2
  store i32 0, ptr %7, align 4
  %20 = load ptr, ptr %5, align 8
  %21 = getelementptr inbounds nuw i8, ptr %20, i64 8
  %22 = load ptr, ptr %5, align 8
  %23 = load i32, ptr %22, align 4
  %24 = lshr i32 %23, 16
  %25 = sext i32 %24 to i64
  %26 = getelementptr inbounds i8, ptr %21, i64 %25
  store ptr %26, ptr %8, align 8
  br label %27

27:                                               ; preds = %49, %19
  %28 = load i32, ptr %7, align 4
  %29 = load ptr, ptr %5, align 8
  %30 = load i32, ptr %29, align 4
  %31 = lshr i32 %30, 3
  %32 = and i32 %31, 8191
  %33 = icmp slt i32 %28, %32
  br i1 %33, label %34, label %56

34:                                               ; preds = %27
  %35 = load ptr, ptr %8, align 8
  %36 = call zeroext i1 @IndexTupleHasNulls(ptr noundef %35)
  br i1 %36, label %48, label %37

37:                                               ; preds = %34
  br label %38

38:                                               ; preds = %37
  br i1 true, label %39, label %41

39:                                               ; preds = %38
  %40 = call zeroext i1 @errstart_cold(i32 noundef 21, ptr noundef null) #8
  br i1 %40, label %43, label %45

41:                                               ; preds = %38
  %42 = call zeroext i1 @errstart(i32 noundef 21, ptr noundef null)
  br i1 %42, label %43, label %45

43:                                               ; preds = %41, %39
  %44 = call i32 (ptr, ...) @errmsg_internal(ptr noundef @.str.9)
  call void @errfinish(ptr noundef @.str.1, i32 noundef 1170, ptr noundef @__func__.spgExtractNodeLabels)
  br label %45

45:                                               ; preds = %43, %41, %39
  unreachable

46:                                               ; No predecessors!
  br label %47

47:                                               ; preds = %46
  br label %48

48:                                               ; preds = %47, %34
  br label %49

49:                                               ; preds = %48
  %50 = load i32, ptr %7, align 4
  %51 = add i32 %50, 1
  store i32 %51, ptr %7, align 4
  %52 = load ptr, ptr %8, align 8
  %53 = load ptr, ptr %8, align 8
  %54 = call i64 @IndexTupleSize(ptr noundef %53)
  %55 = getelementptr inbounds nuw i8, ptr %52, i64 %54
  store ptr %55, ptr %8, align 8
  br label %27, !llvm.loop !15

56:                                               ; preds = %27
  store ptr null, ptr %3, align 8
  store i32 1, ptr %9, align 4
  br label %122

57:                                               ; preds = %2
  %58 = load ptr, ptr %5, align 8
  %59 = load i32, ptr %58, align 4
  %60 = lshr i32 %59, 3
  %61 = and i32 %60, 8191
  %62 = zext i32 %61 to i64
  %63 = mul i64 8, %62
  %64 = call ptr @palloc(i64 noundef %63)
  store ptr %64, ptr %6, align 8
  store i32 0, ptr %7, align 4
  %65 = load ptr, ptr %5, align 8
  %66 = getelementptr inbounds nuw i8, ptr %65, i64 8
  %67 = load ptr, ptr %5, align 8
  %68 = load i32, ptr %67, align 4
  %69 = lshr i32 %68, 16
  %70 = sext i32 %69 to i64
  %71 = getelementptr inbounds i8, ptr %66, i64 %70
  store ptr %71, ptr %8, align 8
  br label %72

72:                                               ; preds = %113, %57
  %73 = load i32, ptr %7, align 4
  %74 = load ptr, ptr %5, align 8
  %75 = load i32, ptr %74, align 4
  %76 = lshr i32 %75, 3
  %77 = and i32 %76, 8191
  %78 = icmp slt i32 %73, %77
  br i1 %78, label %79, label %120

79:                                               ; preds = %72
  %80 = load ptr, ptr %8, align 8
  %81 = call zeroext i1 @IndexTupleHasNulls(ptr noundef %80)
  br i1 %81, label %82, label %93

82:                                               ; preds = %79
  br label %83

83:                                               ; preds = %82
  br i1 true, label %84, label %86

84:                                               ; preds = %83
  %85 = call zeroext i1 @errstart_cold(i32 noundef 21, ptr noundef null) #8
  br i1 %85, label %88, label %90

86:                                               ; preds = %83
  %87 = call zeroext i1 @errstart(i32 noundef 21, ptr noundef null)
  br i1 %87, label %88, label %90

88:                                               ; preds = %86, %84
  %89 = call i32 (ptr, ...) @errmsg_internal(ptr noundef @.str.9)
  call void @errfinish(ptr noundef @.str.1, i32 noundef 1181, ptr noundef @__func__.spgExtractNodeLabels)
  br label %90

90:                                               ; preds = %88, %86, %84
  unreachable

91:                                               ; No predecessors!
  br label %92

92:                                               ; preds = %91
  br label %93

93:                                               ; preds = %92, %79
  %94 = load ptr, ptr %4, align 8
  %95 = getelementptr inbounds nuw %struct.SpGistState, ptr %94, i32 0, i32 5
  %96 = getelementptr inbounds nuw %struct.SpGistTypeDesc, ptr %95, i32 0, i32 2
  %97 = load i8, ptr %96, align 2, !range !4, !noundef !5
  %98 = trunc i8 %97 to i1
  br i1 %98, label %99, label %103

99:                                               ; preds = %93
  %100 = load ptr, ptr %8, align 8
  %101 = getelementptr inbounds nuw i8, ptr %100, i64 8
  %102 = load i64, ptr %101, align 8
  br label %107

103:                                              ; preds = %93
  %104 = load ptr, ptr %8, align 8
  %105 = getelementptr inbounds nuw i8, ptr %104, i64 8
  %106 = call i64 @PointerGetDatum(ptr noundef %105)
  br label %107

107:                                              ; preds = %103, %99
  %108 = phi i64 [ %102, %99 ], [ %106, %103 ]
  %109 = load ptr, ptr %6, align 8
  %110 = load i32, ptr %7, align 4
  %111 = sext i32 %110 to i64
  %112 = getelementptr inbounds i64, ptr %109, i64 %111
  store i64 %108, ptr %112, align 8
  br label %113

113:                                              ; preds = %107
  %114 = load i32, ptr %7, align 4
  %115 = add i32 %114, 1
  store i32 %115, ptr %7, align 4
  %116 = load ptr, ptr %8, align 8
  %117 = load ptr, ptr %8, align 8
  %118 = call i64 @IndexTupleSize(ptr noundef %117)
  %119 = getelementptr inbounds nuw i8, ptr %116, i64 %118
  store ptr %119, ptr %8, align 8
  br label %72, !llvm.loop !16

120:                                              ; preds = %72
  %121 = load ptr, ptr %6, align 8
  store ptr %121, ptr %3, align 8
  store i32 1, ptr %9, align 4
  br label %122

122:                                              ; preds = %120, %56
  call void @llvm.lifetime.end.p0(i64 8, ptr %8) #7
  call void @llvm.lifetime.end.p0(i64 4, ptr %7) #7
  call void @llvm.lifetime.end.p0(i64 8, ptr %6) #7
  %123 = load ptr, ptr %3, align 8
  ret ptr %123
}