; Function Attrs: nounwind uwtable
define dso_local ptr @spgExtractNodeLabels(ptr noundef readonly captures(none) %0, ptr noundef %1) local_unnamed_addr #0 {
  %3 = getelementptr inbounds nuw i8, ptr %1, i64 8
  %4 = load i32, ptr %1, align 4
  %5 = lshr i32 %4, 16
  %6 = zext nneg i32 %5 to i64
  %7 = getelementptr inbounds nuw i8, ptr %3, i64 %6
  %8 = getelementptr i8, ptr %7, i64 6
  %.val = load i16, ptr %8, align 2
  %9 = icmp slt i16 %.val, 0
  br i1 %9, label %.preheader, label %22

.preheader:                                       ; preds = %2
  %10 = lshr i32 %4, 3
  %11 = and i32 %10, 8191
  %.not37 = icmp eq i32 %11, 0
  br i1 %.not37, label %.loopexit, label %.lr.ph36

.lr.ph36:                                         ; preds = %.preheader, %17
  %.035 = phi ptr [ %21, %17 ], [ %7, %.preheader ]
  %.02634 = phi i32 [ %18, %17 ], [ 0, %.preheader ]
  %12 = getelementptr i8, ptr %.035, i64 6
  %.0.val29 = load i16, ptr %12, align 2
  %13 = icmp slt i16 %.0.val29, 0
  br i1 %13, label %17, label %14

14:                                               ; preds = %.lr.ph36
  %15 = tail call zeroext i1 @errstart_cold(i32 noundef 21, ptr noundef null) #11
  tail call void @llvm.assume(i1 %15)
  %16 = tail call i32 (ptr, ...) @errmsg_internal(ptr noundef nonnull @.str.9) #10
  tail call void @errfinish(ptr noundef nonnull @.str.1, i32 noundef 1170, ptr noundef nonnull @__func__.spgExtractNodeLabels) #10
  unreachable

17:                                               ; preds = %.lr.ph36
  %18 = add nuw nsw i32 %.02634, 1
  %19 = and i16 %.0.val29, 8191
  %20 = zext nneg i16 %19 to i64
  %21 = getelementptr inbounds nuw i8, ptr %.035, i64 %20
  %exitcond.not = icmp eq i32 %18, %11
  br i1 %exitcond.not, label %.loopexit, label %.lr.ph36, !llvm.loop !14

22:                                               ; preds = %2
  %23 = and i32 %4, 65528
  %24 = zext nneg i32 %23 to i64
  %25 = tail call ptr @palloc(i64 noundef %24) #10
  %26 = load i32, ptr %1, align 4
  %27 = and i32 %26, 65528
  %.not = icmp eq i32 %27, 0
  br i1 %.not, label %.loopexit, label %.lr.ph

.lr.ph:                                           ; preds = %22
  %28 = lshr i32 %26, 16
  %29 = zext nneg i32 %28 to i64
  %30 = getelementptr inbounds nuw i8, ptr %3, i64 %29
  %31 = getelementptr inbounds nuw i8, ptr %0, i64 66
  br label %32

32:                                               ; preds = %.lr.ph, %46
  %indvars.iv = phi i64 [ 0, %.lr.ph ], [ %indvars.iv.next, %46 ]
  %.133 = phi ptr [ %30, %.lr.ph ], [ %51, %46 ]
  %33 = getelementptr i8, ptr %.133, i64 6
  %.1.val30 = load i16, ptr %33, align 2
  %34 = icmp slt i16 %.1.val30, 0
  br i1 %34, label %35, label %38

35:                                               ; preds = %32
  %36 = tail call zeroext i1 @errstart_cold(i32 noundef 21, ptr noundef null) #11
  tail call void @llvm.assume(i1 %36)
  %37 = tail call i32 (ptr, ...) @errmsg_internal(ptr noundef nonnull @.str.9) #10
  tail call void @errfinish(ptr noundef nonnull @.str.1, i32 noundef 1181, ptr noundef nonnull @__func__.spgExtractNodeLabels) #10
  unreachable

38:                                               ; preds = %32
  %39 = load i8, ptr %31, align 2, !range !7, !noundef !8
  %40 = trunc nuw i8 %39 to i1
  %41 = getelementptr inbounds nuw i8, ptr %.133, i64 8
  br i1 %40, label %42, label %44

42:                                               ; preds = %38
  %43 = load i64, ptr %41, align 8
  br label %46

44:                                               ; preds = %38
  %45 = ptrtoint ptr %41 to i64
  br label %46

46:                                               ; preds = %44, %42
  %47 = phi i64 [ %43, %42 ], [ %45, %44 ]
  %48 = getelementptr inbounds nuw i64, ptr %25, i64 %indvars.iv
  store i64 %47, ptr %48, align 8
  %indvars.iv.next = add nuw nsw i64 %indvars.iv, 1
  %.1.val = load i16, ptr %33, align 2
  %49 = and i16 %.1.val, 8191
  %50 = zext nneg i16 %49 to i64
  %51 = getelementptr inbounds nuw i8, ptr %.133, i64 %50
  %52 = load i32, ptr %1, align 4
  %53 = lshr i32 %52, 3
  %54 = and i32 %53, 8191
  %55 = zext nneg i32 %54 to i64
  %56 = icmp samesign ult i64 %indvars.iv.next, %55
  br i1 %56, label %32, label %.loopexit, !llvm.loop !15

.loopexit:                                        ; preds = %46, %17, %22, %.preheader
  %.028 = phi ptr [ null, %.preheader ], [ %25, %22 ], [ null, %17 ], [ %25, %46 ]
  ret ptr %.028
}